	.file	"secboot.c"
	.text
.Ltext0:
#APP
	.code16gcc
#NO_APP
	.globl	SEG_NULL_SELECTOR
	.section	.rodata
	.align 4
	.type	SEG_NULL_SELECTOR, @object
	.size	SEG_NULL_SELECTOR, 4
SEG_NULL_SELECTOR:
	.zero	4
	.globl	SEG_CODE_SELECTOR
	.align 4
	.type	SEG_CODE_SELECTOR, @object
	.size	SEG_CODE_SELECTOR, 4
SEG_CODE_SELECTOR:
	.long	8
	.globl	SEG_DATA_SELECTOR
	.align 4
	.type	SEG_DATA_SELECTOR, @object
	.size	SEG_DATA_SELECTOR, 4
SEG_DATA_SELECTOR:
	.long	16
	.globl	SEG_STACK_SELECTOR
	.align 4
	.type	SEG_STACK_SELECTOR, @object
	.size	SEG_STACK_SELECTOR, 4
SEG_STACK_SELECTOR:
	.long	24
	.globl	SEG_VIDEO_SELECTOR
	.align 4
	.type	SEG_VIDEO_SELECTOR, @object
	.size	SEG_VIDEO_SELECTOR, 4
SEG_VIDEO_SELECTOR:
	.long	32
	.comm	segDescTable,40,32
	.text
	.type	SegmentDescriptor_setBaseLimitDPL, @function
SegmentDescriptor_setBaseLimitDPL:
.LFB0:
	.file 1 "secboot.c"
	.loc 1 24 0
	.cfi_startproc
	pushl	%ebp
.LCFI0:
	.cfi_def_cfa_offset 8
	.cfi_offset 5, -8
	movl	%esp, %ebp
.LCFI1:
	.cfi_def_cfa_register 5
	.loc 1 25 0
	movl	16(%ebp), %eax
	movl	%eax, %edx
	movl	8(%ebp), %eax
	movw	%dx, (%eax)
	.loc 1 26 0
	movl	12(%ebp), %eax
	movl	%eax, %edx
	movl	8(%ebp), %eax
	movw	%dx, 2(%eax)
	.loc 1 27 0
	movl	12(%ebp), %eax
	shrl	$16, %eax
	movl	%eax, %edx
	movl	8(%ebp), %eax
	movb	%dl, 4(%eax)
	.loc 1 28 0
	movl	12(%ebp), %eax
	shrl	$24, %eax
	movl	%eax, %edx
	movl	8(%ebp), %eax
	movb	%dl, 7(%eax)
	.loc 1 29 0
	movl	20(%ebp), %eax
	andl	$3, %eax
	movl	%eax, %edx
	sall	$5, %edx
	movl	8(%ebp), %eax
	movb	%dl, 5(%eax)
	.loc 1 30 0
	movl	16(%ebp), %eax
	shrl	$16, %eax
	movl	%eax, %edx
	andl	$15, %edx
	movl	8(%ebp), %eax
	movb	%dl, 6(%eax)
	.loc 1 31 0
	popl	%ebp
.LCFI2:
	.cfi_def_cfa 4, 4
	.cfi_restore 5
	ret
	.cfi_endproc
.LFE0:
	.size	SegmentDescriptor_setBaseLimitDPL, .-SegmentDescriptor_setBaseLimitDPL
	.type	SegmentDescriptor_codeSegSetup, @function
SegmentDescriptor_codeSegSetup:
.LFB1:
	.loc 1 37 0
	.cfi_startproc
	pushl	%ebp
.LCFI3:
	.cfi_def_cfa_offset 8
	.cfi_offset 5, -8
	movl	%esp, %ebp
.LCFI4:
	.cfi_def_cfa_register 5
	subl	$16, %esp
	.loc 1 38 0
	movl	20(%ebp), %eax
	movl	%eax, 12(%esp)
	movl	16(%ebp), %eax
	movl	%eax, 8(%esp)
	movl	12(%ebp), %eax
	movl	%eax, 4(%esp)
	movl	8(%ebp), %eax
	movl	%eax, (%esp)
	call	SegmentDescriptor_setBaseLimitDPL
	.loc 1 39 0
	movl	8(%ebp), %eax
	movzbl	5(%eax), %eax
	movl	%eax, %edx
	orl	$-104, %edx
	movl	8(%ebp), %eax
	movb	%dl, 5(%eax)
	.loc 1 41 0
	movl	8(%ebp), %eax
	movzbl	6(%eax), %eax
	movl	%eax, %edx
	orl	$-64, %edx
	movl	8(%ebp), %eax
	movb	%dl, 6(%eax)
	.loc 1 44 0
	leave
	.cfi_restore 5
.LCFI5:
	.cfi_def_cfa 4, 4
	ret
	.cfi_endproc
.LFE1:
	.size	SegmentDescriptor_codeSegSetup, .-SegmentDescriptor_codeSegSetup
	.type	SegmentDescriptor_dataSegSetup, @function
SegmentDescriptor_dataSegSetup:
.LFB2:
	.loc 1 50 0
	.cfi_startproc
	pushl	%ebp
.LCFI6:
	.cfi_def_cfa_offset 8
	.cfi_offset 5, -8
	movl	%esp, %ebp
.LCFI7:
	.cfi_def_cfa_register 5
	subl	$16, %esp
	.loc 1 51 0
	movl	20(%ebp), %eax
	movl	%eax, 12(%esp)
	movl	16(%ebp), %eax
	movl	%eax, 8(%esp)
	movl	12(%ebp), %eax
	movl	%eax, 4(%esp)
	movl	8(%ebp), %eax
	movl	%eax, (%esp)
	call	SegmentDescriptor_setBaseLimitDPL
	.loc 1 52 0
	movl	8(%ebp), %eax
	movzbl	5(%eax), %eax
	movl	%eax, %edx
	orl	$-110, %edx
	movl	8(%ebp), %eax
	movb	%dl, 5(%eax)
	.loc 1 54 0
	movl	16(%ebp), %eax
	shrl	$16, %eax
	andl	$15, %eax
	movl	%eax, %edx
	orl	$-64, %edx
	movl	8(%ebp), %eax
	movb	%dl, 6(%eax)
	.loc 1 57 0
	leave
	.cfi_restore 5
.LCFI8:
	.cfi_def_cfa 4, 4
	ret
	.cfi_endproc
.LFE2:
	.size	SegmentDescriptor_dataSegSetup, .-SegmentDescriptor_dataSegSetup
	.type	SegmentDescriptor_stackSegSetup, @function
SegmentDescriptor_stackSegSetup:
.LFB3:
	.loc 1 63 0
	.cfi_startproc
	pushl	%ebp
.LCFI9:
	.cfi_def_cfa_offset 8
	.cfi_offset 5, -8
	movl	%esp, %ebp
.LCFI10:
	.cfi_def_cfa_register 5
	subl	$16, %esp
	.loc 1 64 0
	movl	20(%ebp), %eax
	movl	%eax, 12(%esp)
	movl	16(%ebp), %eax
	movl	%eax, 8(%esp)
	movl	12(%ebp), %eax
	movl	%eax, 4(%esp)
	movl	8(%ebp), %eax
	movl	%eax, (%esp)
	call	SegmentDescriptor_setBaseLimitDPL
	.loc 1 65 0
	movl	8(%ebp), %eax
	movzbl	5(%eax), %eax
	movl	%eax, %edx
	orl	$-106, %edx
	movl	8(%ebp), %eax
	movb	%dl, 5(%eax)
	.loc 1 67 0
	movl	16(%ebp), %eax
	shrl	$16, %eax
	andl	$15, %eax
	movl	%eax, %edx
	orl	$-64, %edx
	movl	8(%ebp), %eax
	movb	%dl, 6(%eax)
	.loc 1 70 0
	leave
	.cfi_restore 5
.LCFI11:
	.cfi_def_cfa 4, 4
	ret
	.cfi_endproc
.LFE3:
	.size	SegmentDescriptor_stackSegSetup, .-SegmentDescriptor_stackSegSetup
	.section	.rodata
.LC0:
	.string	"In second boot loader\n\rNow\n"
	.text
	.globl	c_entry
	.type	c_entry, @function
c_entry:
.LFB4:
	.loc 1 100 0
	.cfi_startproc
	pushl	%ebp
.LCFI12:
	.cfi_def_cfa_offset 8
	.cfi_offset 5, -8
	movl	%esp, %ebp
.LCFI13:
	.cfi_def_cfa_register 5
	subl	$40, %esp
	.loc 1 103 0
	movl	$21, 8(%esp)
	movl	$27, 4(%esp)
	movl	$.LC0, (%esp)
	call	printString
	.loc 1 104 0
	movl	SEG_CODE_SELECTOR, %eax
	shrl	$3, %eax
	sall	$3, %eax
	addl	$segDescTable, %eax
	movl	$0, 12(%esp)
	movl	$32, 8(%esp)
	movl	$0, 4(%esp)
	movl	%eax, (%esp)
	call	SegmentDescriptor_codeSegSetup
	.loc 1 106 0
	movl	SEG_DATA_SELECTOR, %eax
	shrl	$3, %eax
	sall	$3, %eax
	addl	$segDescTable, %eax
	movl	$3, 12(%esp)
	movl	$8192, 8(%esp)
	movl	$0, 4(%esp)
	movl	%eax, (%esp)
	call	SegmentDescriptor_dataSegSetup
	.loc 1 109 0
	movl	SEG_STACK_SELECTOR, %eax
	shrl	$3, %eax
	sall	$3, %eax
	addl	$segDescTable, %eax
	movl	$0, 12(%esp)
	movl	$33, 8(%esp)
	movl	$0, 4(%esp)
	movl	%eax, (%esp)
	call	SegmentDescriptor_stackSegSetup
	.loc 1 111 0
	movl	SEG_VIDEO_SELECTOR, %eax
	shrl	$3, %eax
	sall	$3, %eax
	addl	$segDescTable, %eax
	movl	$3, 12(%esp)
	movl	$3, 8(%esp)
	movl	$753664, 4(%esp)
	movl	%eax, (%esp)
	call	SegmentDescriptor_dataSegSetup
	.loc 1 113 0
	movw	$39, -14(%ebp)
	.loc 1 114 0
	movl	$segDescTable, %eax
	addl	$98304, %eax
	movl	%eax, -12(%ebp)
	.loc 1 117 0
	leal	-14(%ebp), %eax
	.loc 1 116 0
#APP
# 116 "secboot.c" 1
	lgdt (%eax)
	
# 0 "" 2
	.loc 1 119 0
# 119 "secboot.c" 1
	cli
	in $0x92, %al
	or $0x02, %al
	out %al, $0x92
	
# 0 "" 2
	.loc 1 125 0
# 125 "secboot.c" 1
	mov %cr0, %eax
	or $1, %eax
	mov %eax, %cr0
	ljmpl $0x08, $pm_entry
	
# 0 "" 2
#NO_APP
.L6:
	.loc 1 134 0 discriminator 1
	jmp	.L6
	.cfi_endproc
.LFE4:
	.size	c_entry, .-c_entry
.Letext0:
	.file 2 "types.h"
	.file 3 "secboot.h"
	.section	.note.GNU-stack,"",@progbits
